target datalayout = "e-m:e-p270:32:32-p271:32:32-p272:64:64-i64:64-i128:128-f80:128-n8:16:32:64-S128"
target triple = "x86_64-pc-linux-gnu"

%class.ref_vector = type { %class.ref_vector_core }
%class.ref_vector_core = type { %class.ref_manager_wrapper, %class.ptr_vector }
%class.ref_manager_wrapper = type { ptr }
%class.ptr_vector = type { %class.vector }
%class.vector = type { ptr }
%class.rational = type { %class.mpq }
%class.mpq = type { %class.mpz, %class.mpz }
%class.mpz = type { i32, i8, ptr }
%class.ref = type { ptr }
%class.svector = type { %class.vector.0 }
%class.vector.0 = type { ptr }
%class.params_ref = type { ptr }
%class.vector.28 = type { ptr }
%class.obj_map.52 = type { %class.core_hashtable.53 }
%class.core_hashtable.53 = type <{ ptr, i32, i32, i32, [4 x i8] }>
%"class.opt::maxsmt" = type { ptr, ptr, i32, %class.scoped_ptr.304, %class.vector.28, %class.obj_map.52, %class.ref_vector, %class.rational, %class.rational, %class.ref, %class.svector, %class.params_ref }
%class.scoped_ptr.304 = type { ptr }

; Function Attrs: mustprogress nounwind uwtable
define linkonce_odr hidden noundef ptr @_ZNK10scoped_ptrIN3opt18maxsmt_solver_baseEEptEv(ptr noundef nonnull align 8 dereferenceable(8) %0) #4 comdat align 2 {
  %2 = alloca ptr, align 8
  store ptr %0, ptr %2, align 8, !tbaa !204
  %3 = load ptr, ptr %2, align 8
  %4 = getelementptr inbounds nuw %class.scoped_ptr.304, ptr %3, i32 0, i32 0
  %5 = load ptr, ptr %4, align 8, !tbaa !206
  ret ptr %5
}

; Function Attrs: mustprogress nounwind uwtable
define linkonce_odr hidden noundef zeroext i1 @_ZNK10scoped_ptrIN3opt18maxsmt_solver_baseEEcvbEv(ptr noundef nonnull align 8 dereferenceable(8) %0) #4 comdat align 2 {
  %2 = alloca ptr, align 8
  store ptr %0, ptr %2, align 8, !tbaa !204
  %3 = load ptr, ptr %2, align 8
  %4 = getelementptr inbounds nuw %class.scoped_ptr.304, ptr %3, i32 0, i32 0
  %5 = load ptr, ptr %4, align 8, !tbaa !206
  %6 = icmp ne ptr %5, null
  ret i1 %6
}

; Function Attrs: mustprogress uwtable
define linkonce_odr hidden void @_ZN10params_ref6appendERKS_(ptr noundef nonnull align 8 dereferenceable(8) %0, ptr noundef nonnull align 8 dereferenceable(8) %1) #6 comdat align 2 {
  %3 = alloca ptr, align 8
  %4 = alloca ptr, align 8
  store ptr %0, ptr %3, align 8, !tbaa !71
  store ptr %1, ptr %4, align 8, !tbaa !71
  %5 = load ptr, ptr %3, align 8
  %6 = load ptr, ptr %4, align 8, !tbaa !71
  call void @_ZN10params_ref4copyERKS_(ptr noundef nonnull align 8 dereferenceable(8) %5, ptr noundef nonnull align 8 dereferenceable(8) %6)
  ret void
}

; Function Attrs: mustprogress uwtable
define hidden void @_ZN3opt6maxsmt11updt_paramsER10params_ref(ptr noundef nonnull align 8 dereferenceable(168) %0, ptr noundef nonnull align 8 dereferenceable(8) %1) #6 align 2 {
  %3 = alloca ptr, align 8
  %4 = alloca ptr, align 8
  store ptr %0, ptr %3, align 8, !tbaa !195
  store ptr %1, ptr %4, align 8, !tbaa !71
  %5 = load ptr, ptr %3, align 8
  %6 = getelementptr inbounds nuw %"class.opt::maxsmt", ptr %5, i32 0, i32 11
  %7 = load ptr, ptr %4, align 8, !tbaa !71
  call void @_ZN10params_ref6appendERKS_(ptr noundef nonnull align 8 dereferenceable(8) %6, ptr noundef nonnull align 8 dereferenceable(8) %7)
  %8 = getelementptr inbounds nuw %"class.opt::maxsmt", ptr %5, i32 0, i32 3
  %9 = call noundef zeroext i1 @_ZNK10scoped_ptrIN3opt18maxsmt_solver_baseEEcvbEv(ptr noundef nonnull align 8 dereferenceable(8) %8)
  br i1 %9, label %10, label %17

10:                                               ; preds = %2
  %11 = getelementptr inbounds nuw %"class.opt::maxsmt", ptr %5, i32 0, i32 3
  %12 = call noundef ptr @_ZNK10scoped_ptrIN3opt18maxsmt_solver_baseEEptEv(ptr noundef nonnull align 8 dereferenceable(8) %11)
  %13 = load ptr, ptr %4, align 8, !tbaa !71
  %14 = load ptr, ptr %12, align 8, !tbaa !34
  %15 = getelementptr inbounds ptr, ptr %14, i64 8
  %16 = load ptr, ptr %15, align 8
  call void %16(ptr noundef nonnull align 8 dereferenceable(160) %12, ptr noundef nonnull align 8 dereferenceable(8) %13)
  br label %17

17:                                               ; preds = %10, %2
  ret void
}